; Function Attrs: nounwind sspstrong uwtable
define internal range(i32 -22, 1) i32 @snapshot_access_open(ptr noundef %bs, ptr noundef %options, i32 %flags, ptr noundef %errp) #0 {
entry:
  %call = tail call ptr @bdrv_open_child(ptr noundef null, ptr noundef %options, ptr noundef nonnull @.str.1, ptr noundef %bs, ptr noundef nonnull @child_of_bds, i32 noundef 17, i1 noundef zeroext false, ptr noundef %errp) #4
  tail call void @bdrv_graph_rdlock_main_loop() #4
  %file = getelementptr inbounds nuw i8, ptr %bs, i64 16840
  %0 = load ptr, ptr %file, align 8
  %tobool.not = icmp eq ptr %0, null
  br i1 %tobool.not, label %glib_autoptr_cleanup_GraphLockableMainloop.exit, label %if.end

if.end:                                           ; preds = %entry
  %1 = load ptr, ptr %0, align 8
  %total_sectors = getelementptr inbounds nuw i8, ptr %1, i64 16888
  %2 = load i64, ptr %total_sectors, align 8
  %total_sectors4 = getelementptr inbounds nuw i8, ptr %bs, i64 16888
  store i64 %2, ptr %total_sectors4, align 8
  br label %glib_autoptr_cleanup_GraphLockableMainloop.exit

glib_autoptr_cleanup_GraphLockableMainloop.exit:  ; preds = %entry, %if.end
  %retval.0 = phi i32 [ 0, %if.end ], [ -22, %entry ]
  tail call void @bdrv_graph_rdunlock_main_loop() #4
  ret i32 %retval.0
}